; Function Attrs: nounwind uwtable
define internal void @_set_text_attr(ptr noundef %0, ptr noundef %1, ptr nocapture noundef readonly %2) #0 {
  tail call void @_set_attr(ptr noundef %0, ptr noundef %1, ptr noundef %2)
  %4 = load i8, ptr %2, align 8, !tbaa !163
  switch i8 %4, label %106 [
    i8 46, label %5
    i8 50, label %23
    i8 47, label %41
    i8 49, label %62
    i8 48, label %83
  ]

5:                                                ; preds = %3
  %6 = getelementptr inbounds nuw i8, ptr %2, i64 1
  %7 = load i8, ptr %6, align 1, !tbaa !168
  %8 = icmp eq i8 %7, 1
  br i1 %8, label %9, label %.thread

9:                                                ; preds = %5
  %10 = getelementptr inbounds nuw i8, ptr %0, i64 616
  %11 = load ptr, ptr %10, align 8, !tbaa !201
  %.not59 = icmp eq ptr %11, null
  br i1 %.not59, label %13, label %12

12:                                               ; preds = %9
  tail call void @lv_freetype_font_delete(ptr noundef nonnull %11) #9
  store ptr null, ptr %10, align 8, !tbaa !201
  br label %13

13:                                               ; preds = %12, %9
  %14 = getelementptr inbounds nuw i8, ptr %0, i64 632
  %15 = load ptr, ptr %14, align 8, !tbaa !200
  tail call void @lv_vector_path_clear(ptr noundef %15) #9
  %16 = getelementptr inbounds nuw i8, ptr %0, i64 600
  %17 = load ptr, ptr %16, align 8, !tbaa !198
  %.not60 = icmp eq ptr %17, null
  br i1 %.not60, label %19, label %18

18:                                               ; preds = %13
  tail call void @lv_free(ptr noundef nonnull %17) #9
  br label %19

19:                                               ; preds = %18, %13
  %20 = getelementptr inbounds nuw i8, ptr %2, i64 8
  %21 = load ptr, ptr %20, align 8, !tbaa !165
  %22 = tail call ptr @lv_strdup(ptr noundef %21) #9
  store ptr %22, ptr %16, align 8, !tbaa !198
  br label %thread-pre-split

23:                                               ; preds = %3
  %24 = getelementptr inbounds nuw i8, ptr %2, i64 2
  %25 = load i8, ptr %24, align 2, !tbaa !166
  %26 = icmp eq i8 %25, 1
  br i1 %26, label %27, label %.thread

27:                                               ; preds = %23
  %28 = getelementptr inbounds nuw i8, ptr %2, i64 1
  %29 = load i8, ptr %28, align 1, !tbaa !168
  %30 = icmp eq i8 %29, 0
  br i1 %30, label %31, label %thread-pre-split

31:                                               ; preds = %27
  %32 = getelementptr inbounds nuw i8, ptr %0, i64 616
  %33 = load ptr, ptr %32, align 8, !tbaa !201
  %.not58 = icmp eq ptr %33, null
  br i1 %.not58, label %35, label %34

34:                                               ; preds = %31
  tail call void @lv_freetype_font_delete(ptr noundef nonnull %33) #9
  store ptr null, ptr %32, align 8, !tbaa !201
  br label %35

35:                                               ; preds = %34, %31
  %36 = getelementptr inbounds nuw i8, ptr %2, i64 8
  %37 = load float, ptr %36, align 8, !tbaa !165
  %38 = getelementptr inbounds nuw i8, ptr %0, i64 608
  store float %37, ptr %38, align 8, !tbaa !199
  %39 = getelementptr inbounds nuw i8, ptr %0, i64 632
  %40 = load ptr, ptr %39, align 8, !tbaa !200
  tail call void @lv_vector_path_clear(ptr noundef %40) #9
  br label %thread-pre-split

41:                                               ; preds = %3
  %42 = getelementptr inbounds nuw i8, ptr %2, i64 2
  %43 = load i8, ptr %42, align 2, !tbaa !166
  %44 = icmp eq i8 %43, 1
  br i1 %44, label %45, label %.thread

45:                                               ; preds = %41
  %46 = getelementptr inbounds nuw i8, ptr %2, i64 1
  %47 = load i8, ptr %46, align 1, !tbaa !168
  %48 = icmp eq i8 %47, 1
  br i1 %48, label %49, label %thread-pre-split

49:                                               ; preds = %45
  %50 = getelementptr inbounds nuw i8, ptr %0, i64 616
  %51 = load ptr, ptr %50, align 8, !tbaa !201
  %.not57 = icmp eq ptr %51, null
  br i1 %.not57, label %53, label %52

52:                                               ; preds = %49
  tail call void @lv_freetype_font_delete(ptr noundef nonnull %51) #9
  store ptr null, ptr %50, align 8, !tbaa !201
  br label %53

53:                                               ; preds = %52, %49
  %54 = getelementptr inbounds nuw i8, ptr %0, i64 632
  %55 = load ptr, ptr %54, align 8, !tbaa !200
  tail call void @lv_vector_path_clear(ptr noundef %55) #9
  %56 = getelementptr inbounds nuw i8, ptr %2, i64 8
  %57 = load ptr, ptr %56, align 8, !tbaa !165
  %58 = tail call i32 @strncmp(ptr noundef nonnull dereferenceable(1) %57, ptr noundef nonnull dereferenceable(7) @.str.1, i64 noundef 6) #10
  %59 = icmp eq i32 %58, 0
  br i1 %59, label %60, label %thread-pre-split

60:                                               ; preds = %53
  %61 = getelementptr inbounds nuw i8, ptr %0, i64 612
  store i32 1, ptr %61, align 4, !tbaa !202
  br label %thread-pre-split

62:                                               ; preds = %3
  %63 = getelementptr inbounds nuw i8, ptr %2, i64 2
  %64 = load i8, ptr %63, align 2, !tbaa !166
  %65 = icmp eq i8 %64, 1
  br i1 %65, label %66, label %.thread

66:                                               ; preds = %62
  %67 = getelementptr inbounds nuw i8, ptr %2, i64 1
  %68 = load i8, ptr %67, align 1, !tbaa !168
  %69 = icmp eq i8 %68, 1
  br i1 %69, label %70, label %thread-pre-split

70:                                               ; preds = %66
  %71 = getelementptr inbounds nuw i8, ptr %0, i64 616
  %72 = load ptr, ptr %71, align 8, !tbaa !201
  %.not56 = icmp eq ptr %72, null
  br i1 %.not56, label %74, label %73

73:                                               ; preds = %70
  tail call void @lv_freetype_font_delete(ptr noundef nonnull %72) #9
  store ptr null, ptr %71, align 8, !tbaa !201
  br label %74

74:                                               ; preds = %73, %70
  %75 = getelementptr inbounds nuw i8, ptr %0, i64 632
  %76 = load ptr, ptr %75, align 8, !tbaa !200
  tail call void @lv_vector_path_clear(ptr noundef %76) #9
  %77 = getelementptr inbounds nuw i8, ptr %2, i64 8
  %78 = load ptr, ptr %77, align 8, !tbaa !165
  %79 = tail call i32 @strncmp(ptr noundef nonnull dereferenceable(1) %78, ptr noundef nonnull dereferenceable(5) @.str.2, i64 noundef 4) #10
  %80 = icmp eq i32 %79, 0
  br i1 %80, label %81, label %thread-pre-split

81:                                               ; preds = %74
  %82 = getelementptr inbounds nuw i8, ptr %0, i64 612
  store i32 2, ptr %82, align 4, !tbaa !202
  br label %thread-pre-split

83:                                               ; preds = %3
  %84 = getelementptr inbounds nuw i8, ptr %2, i64 2
  %85 = load i8, ptr %84, align 2, !tbaa !166
  %86 = icmp eq i8 %85, 1
  br i1 %86, label %87, label %.thread

87:                                               ; preds = %83
  %88 = getelementptr inbounds nuw i8, ptr %2, i64 1
  %89 = load i8, ptr %88, align 1, !tbaa !168
  %90 = icmp eq i8 %89, 1
  br i1 %90, label %91, label %thread-pre-split

91:                                               ; preds = %87
  %92 = getelementptr inbounds nuw i8, ptr %0, i64 616
  %93 = load ptr, ptr %92, align 8, !tbaa !201
  %.not = icmp eq ptr %93, null
  br i1 %.not, label %95, label %94

94:                                               ; preds = %91
  tail call void @lv_freetype_font_delete(ptr noundef nonnull %93) #9
  store ptr null, ptr %92, align 8, !tbaa !201
  br label %95

95:                                               ; preds = %94, %91
  %96 = getelementptr inbounds nuw i8, ptr %0, i64 632
  %97 = load ptr, ptr %96, align 8, !tbaa !200
  tail call void @lv_vector_path_clear(ptr noundef %97) #9
  %98 = getelementptr inbounds nuw i8, ptr %2, i64 8
  %99 = load ptr, ptr %98, align 8, !tbaa !165
  %100 = tail call i32 @strncmp(ptr noundef nonnull dereferenceable(1) %99, ptr noundef nonnull dereferenceable(11) @.str.3, i64 noundef 10) #10
  %101 = icmp eq i32 %100, 0
  br i1 %101, label %102, label %thread-pre-split

102:                                              ; preds = %95
  %103 = getelementptr inbounds nuw i8, ptr %0, i64 608
  %104 = load float, ptr %103, align 8, !tbaa !199
  %105 = fmul float %104, 5.000000e-01
  store float %105, ptr %103, align 8, !tbaa !199
  br label %thread-pre-split

thread-pre-split:                                 ; preds = %19, %27, %35, %45, %60, %53, %66, %81, %74, %87, %102, %95
  %.pr = load i8, ptr %2, align 8, !tbaa !163
  br label %106

106:                                              ; preds = %thread-pre-split, %3
  %107 = phi i8 [ %.pr, %thread-pre-split ], [ %4, %3 ]
  switch i8 %107, label %.thread [
    i8 11, label %108
    i8 12, label %112
  ]

108:                                              ; preds = %106
  %109 = getelementptr inbounds nuw i8, ptr %2, i64 8
  %110 = load float, ptr %109, align 8, !tbaa !165
  %111 = getelementptr inbounds nuw i8, ptr %0, i64 624
  store float %110, ptr %111, align 8, !tbaa !203
  br label %.thread

112:                                              ; preds = %106
  %113 = getelementptr inbounds nuw i8, ptr %2, i64 8
  %114 = load float, ptr %113, align 8, !tbaa !165
  %115 = getelementptr inbounds nuw i8, ptr %0, i64 628
  store float %114, ptr %115, align 4, !tbaa !204
  br label %.thread

.thread:                                          ; preds = %5, %23, %41, %62, %83, %112, %108, %106
  ret void
}